target datalayout = "e-m:e-p270:32:32-p271:32:32-p272:64:64-i64:64-i128:128-f80:128-n8:16:32:64-S128"
target triple = "x86_64-unknown-linux-gnu"

%"struct.std::atomic.85" = type { %"struct.std::__atomic_base.86" }
%"struct.std::__atomic_base.86" = type { i8 }
%"struct.std::atomic" = type { %"struct.std::__atomic_base" }
%"struct.std::__atomic_base" = type { i32 }
%class.z3_log_ctx = type { i8 }
%class.symbol = type { ptr }
%"class.std::__cxx11::basic_string" = type { %"struct.std::__cxx11::basic_string<char>::_Alloc_hider", i64, %union.anon }
%"struct.std::__cxx11::basic_string<char>::_Alloc_hider" = type { ptr }
%union.anon = type { i64, [8 x i8] }
%"class.api::context" = type { %class.tactic_manager, %class.ast_context_params, i8, i8, %class.scoped_ptr, %class.scoped_ptr.13, %"struct.api::context::add_plugins", %"class.std::mutex", %class.arith_util, %class.bv_util, %"class.datalog::dl_decl_util", %class.fpa_util, %class.seq_util, %"class.recfun::util", %struct.smt_params, %class.ptr_vector.19, %class.ptr_vector.19, %class.ptr_vector.21, %class.ptr_vector.21, %class.ref_vector.23, %class.ref.26, %class.u_map, %class.svector, i32, i32, i32, i32, i32, i32, i32, i32, i32, ptr, %"class.std::__cxx11::basic_string", i32, ptr, %"class.std::__cxx11::basic_string", i32, %class.ptr_vector.32, %class.sbuffer, ptr, %class.reslimit, %"class.api::pmanager", %class.mpq_manager, %class.scoped_ptr.40 }
%class.tactic_manager = type { %class.map, %class.map.1, %class.map.5, %class.ptr_vector, %class.ptr_vector.9, %class.ptr_vector.11 }
%class.map = type { %class.table2map }
%class.table2map = type { %class.core_hashtable }
%class.core_hashtable = type <{ ptr, i32, i32, i32, [4 x i8] }>
%class.map.1 = type { %class.table2map.2 }
%class.table2map.2 = type { %class.core_hashtable.3 }
%class.core_hashtable.3 = type <{ ptr, i32, i32, i32, [4 x i8] }>
%class.map.5 = type { %class.table2map.6 }
%class.table2map.6 = type { %class.core_hashtable.7 }
%class.core_hashtable.7 = type <{ ptr, i32, i32, i32, [4 x i8] }>
%class.ptr_vector = type { %class.vector }
%class.vector = type { ptr }
%class.ptr_vector.9 = type { %class.vector.10 }
%class.vector.10 = type { ptr }
%class.ptr_vector.11 = type { %class.vector.12 }
%class.vector.12 = type { ptr }
%class.ast_context_params = type { %class.context_params, ptr }
%class.context_params = type { i32, i32, %"class.std::__cxx11::basic_string", %"class.std::__cxx11::basic_string", i8, i8, i8, i8, i8, i8, i8, i8, i8, i8, i8, %"class.std::__cxx11::basic_string" }
%class.scoped_ptr = type { ptr }
%class.scoped_ptr.13 = type { ptr }
%"struct.api::context::add_plugins" = type { i8 }
%"class.std::mutex" = type { %"class.std::__mutex_base" }
%"class.std::__mutex_base" = type { %union.pthread_mutex_t }
%union.pthread_mutex_t = type { %struct.__pthread_mutex_s }
%struct.__pthread_mutex_s = type { i32, i32, i32, i32, i32, i16, i16, %struct.__pthread_internal_list }
%struct.__pthread_internal_list = type { ptr, ptr }
%class.arith_util = type { ptr, ptr }
%class.bv_util = type { %class.bv_recognizers, ptr, ptr }
%class.bv_recognizers = type { i32 }
%"class.datalog::dl_decl_util" = type <{ ptr, %class.scoped_ptr.14, %class.scoped_ptr.15, i32, [4 x i8] }>
%class.scoped_ptr.14 = type { ptr }
%class.scoped_ptr.15 = type { ptr }
%class.fpa_util = type { ptr, ptr, i32, %class.arith_util, %class.bv_util }
%class.seq_util = type { ptr, ptr, ptr, i32, [4 x i8], %"class.seq_util::str", %"class.seq_util::rex" }
%"class.seq_util::str" = type <{ ptr, ptr, i32, [4 x i8] }>
%"class.seq_util::rex" = type { ptr, ptr, i32, %class.vector.16, %class.ref_vector, %"struct.seq_util::rex::info", %"struct.seq_util::rex::info" }
%class.vector.16 = type { ptr }
%class.ref_vector = type { %class.ref_vector_core }
%class.ref_vector_core = type { %class.ref_manager_wrapper, %class.ptr_vector.17 }
%class.ref_manager_wrapper = type { ptr }
%class.ptr_vector.17 = type { %class.vector.18 }
%class.vector.18 = type { ptr }
%"struct.seq_util::rex::info" = type { i32, i8, i32, i32 }
%"class.recfun::util" = type { ptr, i32, ptr }
%struct.smt_params = type { %struct.preprocessor_params.base, %struct.dyn_ack_params, %struct.qi_params, %struct.theory_arith_params.base, i8, %struct.theory_array_params.base, %struct.theory_bv_params, %struct.theory_str_params.base, %struct.theory_seq_params, %struct.theory_pb_params.base, %struct.theory_datatype_params, i8, i8, i8, i8, i8, i8, i32, i8, i32, double, double, i32, i32, i32, i32, i32, i8, i32, i32, i32, i32, i32, i32, i8, i32, i8, i8, i8, i8, i8, %class.symbol, i32, i32, i8, i8, i8, i8, i32, i8, i32, i32, double, i8, double, double, i32, i8, i32, i32, double, i32, i32, i32, i32, i32, double, i8, i8, i8, %class.symbol, i8, i8, i8, i8, i8, i8, i32, i8, i8, i8, i8, i8, i8, i8, i8, i8, double, i8, %class.symbol }
%struct.preprocessor_params.base = type <{ %struct.pattern_inference_params.base, %struct.bit_blaster_params, i32, i32, i8, i8, i8, i8, i8, i8, i8, i8, i8, i8, i8, i8, i8, i8, i8, i8, i8, i8, i8 }>
%struct.pattern_inference_params.base = type <{ i8, [3 x i8], i32, i8, i8, [2 x i8], i32, i8, [3 x i8], i32, i32, i8, [3 x i8], i32, i8, i8 }>
%struct.bit_blaster_params = type { i8, i8 }
%struct.dyn_ack_params = type { i32, i8, double, i32, i32, double }
%struct.qi_params = type { %"class.std::__cxx11::basic_string", %"class.std::__cxx11::basic_string", double, double, i32, i32, i8, i32, i32, i8, i8, i32, i8, i8, i8, i8, i32, i32, i32, i8, i32, ptr }
%struct.theory_arith_params.base = type <{ i8, i8, [2 x i8], i32, i8, [3 x i8], i32, i8, [3 x i8], i32, i8, i8, [2 x i8], i32, i32, i8, i8, [2 x i8], i32, i32, i8, [3 x i8], i32, i32, i8, [3 x i8], double, double, i8, [3 x i8], i32, i8, i8, i8, i8, i8, [3 x i8], i32, i32, i8, [3 x i8], i32, i8, i8, i8, i8, i8, i8, [2 x i8], i32, i8, i8, [2 x i8], i32, i8, [3 x i8], i32, i8, i8, i8 }>
%struct.theory_array_params.base = type <{ i8, i8, [2 x i8], i32, i8, i8, [2 x i8], i32, i8, i8, i8, i8, i32, i8 }>
%struct.theory_bv_params = type { i32, i8, i8, i8, i8, i32, i8, i8, i8, i8, i32 }
%struct.theory_str_params.base = type <{ i8, i8, i8, i8, i8, i8, i8, i8, double, i32, i32, i32, i32, i32, i8, i8 }>
%struct.theory_seq_params = type { i8, i8, i32, i32 }
%struct.theory_pb_params.base = type <{ i32, i8 }>
%struct.theory_datatype_params = type { i32 }
%class.ptr_vector.19 = type { %class.vector.20 }
%class.vector.20 = type { ptr }
%class.ptr_vector.21 = type { %class.vector.22 }
%class.vector.22 = type { ptr }
%class.ref_vector.23 = type { %class.ref_vector_core.24 }
%class.ref_vector_core.24 = type { %class.ref_manager_wrapper.25, %class.ptr_vector.19 }
%class.ref_manager_wrapper.25 = type { ptr }
%class.ref.26 = type { ptr }
%class.u_map = type { %class.map.27 }
%class.map.27 = type { %class.table2map.28 }
%class.table2map.28 = type { %class.core_hashtable.29 }
%class.core_hashtable.29 = type <{ ptr, i32, i32, i32, [4 x i8] }>
%class.svector = type { %class.vector.31 }
%class.vector.31 = type { ptr }
%class.ptr_vector.32 = type { %class.vector.33 }
%class.vector.33 = type { ptr }
%class.sbuffer = type { %class.buffer.34 }
%class.buffer.34 = type { ptr, i32, i32, [16 x %"union.std::aligned_storage<1, 1>::type"] }
%"union.std::aligned_storage<1, 1>::type" = type { [1 x i8] }
%class.reslimit = type { %"struct.std::atomic", i8, i64, i64, %class.svector.36, %class.ptr_vector.38 }
%class.svector.36 = type { %class.vector.37 }
%class.vector.37 = type { ptr }
%class.ptr_vector.38 = type { %class.vector.39 }
%class.vector.39 = type { ptr }
%"class.api::pmanager" = type { %class.mpz_manager, %"class.polynomial::manager" }
%class.mpz_manager = type { %class.small_object_allocator, %"class.std::recursive_mutex", %class.mpn_manager, i32, %class.mpz, %class.mpz }
%class.small_object_allocator = type { [32 x ptr], [32 x ptr], i64 }
%"class.std::recursive_mutex" = type { %"class.std::__recursive_mutex_base" }
%"class.std::__recursive_mutex_base" = type { %union.pthread_mutex_t }
%class.mpn_manager = type { i8 }
%class.mpz = type { i32, i8, ptr }
%"class.polynomial::manager" = type { ptr }
%class.mpq_manager = type { %class.mpz_manager, %class.mpz, %class.mpz, %class.mpz, %class.mpz, %class.mpq, %class.mpq }
%class.mpq = type { %class.mpz, %class.mpz }
%class.scoped_ptr.40 = type { ptr }

@_ZTI12z3_exception = external constant ptr
@g_z3_log_enabled = external global %"struct.std::atomic.85", align 1

; Function Attrs: mustprogress nounwind uwtable
define linkonce_odr noundef i32 @_ZStanSt12memory_orderSt23__memory_order_modifier(i32 noundef %__m, i32 noundef %__mod) #5 comdat {
entry:
  %__m.addr = alloca i32, align 4
  %__mod.addr = alloca i32, align 4
  store i32 %__m, ptr %__m.addr, align 4
  store i32 %__mod, ptr %__mod.addr, align 4
  %0 = load i32, ptr %__m.addr, align 4
  %1 = load i32, ptr %__mod.addr, align 4
  %and = and i32 %0, %1
  ret i32 %and
}

; Function Attrs: mustprogress nounwind uwtable
define linkonce_odr hidden noundef zeroext i1 @_ZNSt13__atomic_baseIbEaSEb(ptr noundef nonnull align 1 dereferenceable(1) %this, i1 noundef zeroext %__i) #5 comdat align 2 personality ptr @__gxx_personality_v0 {
entry:
  %this.addr.i = alloca ptr, align 8
  %__i.addr.i = alloca i8, align 1
  %__m.addr.i = alloca i32, align 4
  %__b.i = alloca i32, align 4
  %.atomictmp.i = alloca i8, align 1
  %this.addr = alloca ptr, align 8
  %__i.addr = alloca i8, align 1
  store ptr %this, ptr %this.addr, align 8
  %frombool = zext i1 %__i to i8
  store i8 %frombool, ptr %__i.addr, align 1
  %this1 = load ptr, ptr %this.addr, align 8
  %0 = load i8, ptr %__i.addr, align 1
  %tobool = trunc i8 %0 to i1
  store ptr %this1, ptr %this.addr.i, align 8
  %frombool.i = zext i1 %tobool to i8
  store i8 %frombool.i, ptr %__i.addr.i, align 1
  store i32 5, ptr %__m.addr.i, align 4
  %this1.i = load ptr, ptr %this.addr.i, align 8
  %1 = load i32, ptr %__m.addr.i, align 4
  %call.i = invoke noundef i32 @_ZStanSt12memory_orderSt23__memory_order_modifier(i32 noundef %1, i32 noundef 65535)
          to label %invoke.cont.i unwind label %terminate.lpad.i

invoke.cont.i:                                    ; preds = %entry
  store i32 %call.i, ptr %__b.i, align 4
  %2 = load i32, ptr %__m.addr.i, align 4
  %3 = load i8, ptr %__i.addr.i, align 1
  %tobool.i = trunc i8 %3 to i1
  %frombool8.i = zext i1 %tobool.i to i8
  store i8 %frombool8.i, ptr %.atomictmp.i, align 1
  switch i32 %2, label %monotonic.i [
    i32 3, label %release.i
    i32 5, label %seqcst.i
  ]

monotonic.i:                                      ; preds = %invoke.cont.i
  %4 = load i8, ptr %.atomictmp.i, align 1
  store atomic i8 %4, ptr %this1.i monotonic, align 1
  br label %_ZNSt13__atomic_baseIbE5storeEbSt12memory_order.exit

release.i:                                        ; preds = %invoke.cont.i
  %5 = load i8, ptr %.atomictmp.i, align 1
  store atomic i8 %5, ptr %this1.i release, align 1
  br label %_ZNSt13__atomic_baseIbE5storeEbSt12memory_order.exit

seqcst.i:                                         ; preds = %invoke.cont.i
  %6 = load i8, ptr %.atomictmp.i, align 1
  store atomic i8 %6, ptr %this1.i seq_cst, align 1
  br label %_ZNSt13__atomic_baseIbE5storeEbSt12memory_order.exit

terminate.lpad.i:                                 ; preds = %entry
  %7 = landingpad { ptr, i32 }
          catch ptr null
  %8 = extractvalue { ptr, i32 } %7, 0
  call void @__clang_call_terminate(ptr %8) #15
  unreachable

_ZNSt13__atomic_baseIbE5storeEbSt12memory_order.exit: ; preds = %seqcst.i, %release.i, %monotonic.i
  %9 = load i8, ptr %__i.addr, align 1
  %tobool2 = trunc i8 %9 to i1
  ret i1 %tobool2
}

; Function Attrs: mustprogress nounwind uwtable
define linkonce_odr hidden noundef zeroext i1 @_ZNSt6atomicIbEaSEb(ptr noundef nonnull align 1 dereferenceable(1) %this, i1 noundef zeroext %__i) #5 comdat align 2 {
entry:
  %this.addr = alloca ptr, align 8
  %__i.addr = alloca i8, align 1
  store ptr %this, ptr %this.addr, align 8
  %frombool = zext i1 %__i to i8
  store i8 %frombool, ptr %__i.addr, align 1
  %this1 = load ptr, ptr %this.addr, align 8
  %_M_base = getelementptr inbounds %"struct.std::atomic.85", ptr %this1, i32 0, i32 0
  %0 = load i8, ptr %__i.addr, align 1
  %tobool = trunc i8 %0 to i1
  %call = call noundef zeroext i1 @_ZNSt13__atomic_baseIbEaSEb(ptr noundef nonnull align 1 dereferenceable(1) %_M_base, i1 noundef zeroext %tobool) #3
  ret i1 %call
}

; Function Attrs: mustprogress nounwind uwtable
define linkonce_odr hidden noundef zeroext i1 @_ZNSt6atomicIbE8exchangeEbSt12memory_order(ptr noundef nonnull align 1 dereferenceable(1) %this, i1 noundef zeroext %__i, i32 noundef %__m) #5 comdat align 2 {
entry:
  %this.addr.i = alloca ptr, align 8
  %__i.addr.i = alloca i8, align 1
  %__m.addr.i = alloca i32, align 4
  %.atomictmp.i = alloca i8, align 1
  %atomic-temp.i = alloca i8, align 1
  %this.addr = alloca ptr, align 8
  %__i.addr = alloca i8, align 1
  %__m.addr = alloca i32, align 4
  store ptr %this, ptr %this.addr, align 8
  %frombool = zext i1 %__i to i8
  store i8 %frombool, ptr %__i.addr, align 1
  store i32 %__m, ptr %__m.addr, align 4
  %this1 = load ptr, ptr %this.addr, align 8
  %_M_base = getelementptr inbounds %"struct.std::atomic.85", ptr %this1, i32 0, i32 0
  %0 = load i8, ptr %__i.addr, align 1
  %tobool = trunc i8 %0 to i1
  %1 = load i32, ptr %__m.addr, align 4
  store ptr %_M_base, ptr %this.addr.i, align 8
  %frombool.i = zext i1 %tobool to i8
  store i8 %frombool.i, ptr %__i.addr.i, align 1
  store i32 %1, ptr %__m.addr.i, align 4
  %this1.i = load ptr, ptr %this.addr.i, align 8
  %2 = load i32, ptr %__m.addr.i, align 4
  %3 = load i8, ptr %__i.addr.i, align 1
  %tobool.i = trunc i8 %3 to i1
  %frombool2.i = zext i1 %tobool.i to i8
  store i8 %frombool2.i, ptr %.atomictmp.i, align 1
  switch i32 %2, label %monotonic.i [
    i32 1, label %acquire.i
    i32 2, label %acquire.i
    i32 3, label %release.i
    i32 4, label %acqrel.i
    i32 5, label %seqcst.i
  ]

monotonic.i:                                      ; preds = %entry
  %4 = load i8, ptr %.atomictmp.i, align 1
  %5 = atomicrmw xchg ptr %this1.i, i8 %4 monotonic, align 1
  store i8 %5, ptr %atomic-temp.i, align 1
  br label %_ZNSt13__atomic_baseIbE8exchangeEbSt12memory_order.exit

acquire.i:                                        ; preds = %entry, %entry
  %6 = load i8, ptr %.atomictmp.i, align 1
  %7 = atomicrmw xchg ptr %this1.i, i8 %6 acquire, align 1
  store i8 %7, ptr %atomic-temp.i, align 1
  br label %_ZNSt13__atomic_baseIbE8exchangeEbSt12memory_order.exit

release.i:                                        ; preds = %entry
  %8 = load i8, ptr %.atomictmp.i, align 1
  %9 = atomicrmw xchg ptr %this1.i, i8 %8 release, align 1
  store i8 %9, ptr %atomic-temp.i, align 1
  br label %_ZNSt13__atomic_baseIbE8exchangeEbSt12memory_order.exit

acqrel.i:                                         ; preds = %entry
  %10 = load i8, ptr %.atomictmp.i, align 1
  %11 = atomicrmw xchg ptr %this1.i, i8 %10 acq_rel, align 1
  store i8 %11, ptr %atomic-temp.i, align 1
  br label %_ZNSt13__atomic_baseIbE8exchangeEbSt12memory_order.exit

seqcst.i:                                         ; preds = %entry
  %12 = load i8, ptr %.atomictmp.i, align 1
  %13 = atomicrmw xchg ptr %this1.i, i8 %12 seq_cst, align 1
  store i8 %13, ptr %atomic-temp.i, align 1
  br label %_ZNSt13__atomic_baseIbE8exchangeEbSt12memory_order.exit

_ZNSt13__atomic_baseIbE8exchangeEbSt12memory_order.exit: ; preds = %seqcst.i, %acqrel.i, %release.i, %acquire.i, %monotonic.i
  %14 = load i8, ptr %atomic-temp.i, align 1
  %tobool3.i = trunc i8 %14 to i1
  ret i1 %tobool3.i
}

; Function Attrs: mustprogress nounwind uwtable
define linkonce_odr hidden noundef ptr @_Z9to_tacticP10_Z3_tactic(ptr noundef %g) #5 comdat {
entry:
  %g.addr = alloca ptr, align 8
  store ptr %g, ptr %g.addr, align 8
  %0 = load ptr, ptr %g.addr, align 8
  ret ptr %0
}

; Function Attrs: mustprogress nounwind uwtable
define linkonce_odr hidden void @_ZN3api7context16reset_error_codeEv(ptr noundef nonnull align 8 dereferenceable(3048) %this) #5 comdat align 2 {
entry:
  %this.addr = alloca ptr, align 8
  store ptr %this, ptr %this.addr, align 8
  %this1 = load ptr, ptr %this.addr, align 8
  %m_error_code = getelementptr inbounds %"class.api::context", ptr %this1, i32 0, i32 34
  store i32 0, ptr %m_error_code, align 8
  ret void
}

; Function Attrs: mustprogress nounwind uwtable
define linkonce_odr hidden noundef ptr @_Z4mk_cP11_Z3_context(ptr noundef %c) #5 comdat {
entry:
  %c.addr = alloca ptr, align 8
  store ptr %c, ptr %c.addr, align 8
  %0 = load ptr, ptr %c.addr, align 8
  ret ptr %0
}

; Function Attrs: mustprogress nounwind uwtable
define linkonce_odr hidden void @_ZN10z3_log_ctxD2Ev(ptr noundef nonnull align 1 dereferenceable(1) %this) unnamed_addr #5 comdat align 2 {
entry:
  %this.addr = alloca ptr, align 8
  store ptr %this, ptr %this.addr, align 8
  %this1 = load ptr, ptr %this.addr, align 8
  %m_prev = getelementptr inbounds %class.z3_log_ctx, ptr %this1, i32 0, i32 0
  %0 = load i8, ptr %m_prev, align 1
  %tobool = trunc i8 %0 to i1
  br i1 %tobool, label %if.then, label %if.end

if.then:                                          ; preds = %entry
  %call = call noundef zeroext i1 @_ZNSt6atomicIbEaSEb(ptr noundef nonnull align 1 dereferenceable(1) @g_z3_log_enabled, i1 noundef zeroext true) #3
  br label %if.end

if.end:                                           ; preds = %if.then, %entry
  ret void
}

; Function Attrs: mustprogress nounwind uwtable
define linkonce_odr hidden noundef zeroext i1 @_ZNK10z3_log_ctx7enabledEv(ptr noundef nonnull align 1 dereferenceable(1) %this) #5 comdat align 2 {
entry:
  %this.addr = alloca ptr, align 8
  store ptr %this, ptr %this.addr, align 8
  %this1 = load ptr, ptr %this.addr, align 8
  %m_prev = getelementptr inbounds %class.z3_log_ctx, ptr %this1, i32 0, i32 0
  %0 = load i8, ptr %m_prev, align 1
  %tobool = trunc i8 %0 to i1
  ret i1 %tobool
}

; Function Attrs: mustprogress nounwind uwtable
define linkonce_odr hidden void @_ZN10z3_log_ctxC2Ev(ptr noundef nonnull align 1 dereferenceable(1) %this) unnamed_addr #5 comdat align 2 {
entry:
  %this.addr = alloca ptr, align 8
  store ptr %this, ptr %this.addr, align 8
  %this1 = load ptr, ptr %this.addr, align 8
  %call = call noundef zeroext i1 @_ZNSt6atomicIbE8exchangeEbSt12memory_order(ptr noundef nonnull align 1 dereferenceable(1) @g_z3_log_enabled, i1 noundef zeroext false, i32 noundef 5) #3
  %m_prev = getelementptr inbounds %class.z3_log_ctx, ptr %this1, i32 0, i32 0
  %frombool = zext i1 %call to i8
  store i8 %frombool, ptr %m_prev, align 1
  ret void
}

; Function Attrs: mustprogress uwtable
define void @Z3_tactic_inc_ref(ptr noundef %c, ptr noundef %t) #4 personality ptr @__gxx_personality_v0 {
entry:
  %c.addr = alloca ptr, align 8
  %t.addr = alloca ptr, align 8
  %_LOG_CTX = alloca %class.z3_log_ctx, align 1
  %exn.slot = alloca ptr, align 8
  %ehselector.slot = alloca i32, align 4
  %ex = alloca ptr, align 8
  store ptr %c, ptr %c.addr, align 8
  store ptr %t, ptr %t.addr, align 8
  invoke void @_ZN10z3_log_ctxC2Ev(ptr noundef nonnull align 1 dereferenceable(1) %_LOG_CTX)
          to label %invoke.cont unwind label %lpad

invoke.cont:                                      ; preds = %entry
  %call = invoke noundef zeroext i1 @_ZNK10z3_log_ctx7enabledEv(ptr noundef nonnull align 1 dereferenceable(1) %_LOG_CTX)
          to label %invoke.cont2 unwind label %lpad1

invoke.cont2:                                     ; preds = %invoke.cont
  br i1 %call, label %if.then, label %if.end

if.then:                                          ; preds = %invoke.cont2
  %0 = load ptr, ptr %c.addr, align 8
  %1 = load ptr, ptr %t.addr, align 8
  invoke void @_Z21log_Z3_tactic_inc_refP11_Z3_contextP10_Z3_tactic(ptr noundef %0, ptr noundef %1)
          to label %invoke.cont3 unwind label %lpad1

invoke.cont3:                                     ; preds = %if.then
  br label %if.end

lpad:                                             ; preds = %entry
  %2 = landingpad { ptr, i32 }
          catch ptr @_ZTI12z3_exception
  %3 = extractvalue { ptr, i32 } %2, 0
  store ptr %3, ptr %exn.slot, align 8
  %4 = extractvalue { ptr, i32 } %2, 1
  store i32 %4, ptr %ehselector.slot, align 4
  br label %catch.dispatch

lpad1:                                            ; preds = %invoke.cont7, %invoke.cont6, %invoke.cont4, %if.end, %if.then, %invoke.cont
  %5 = landingpad { ptr, i32 }
          cleanup
          catch ptr @_ZTI12z3_exception
  %6 = extractvalue { ptr, i32 } %5, 0
  store ptr %6, ptr %exn.slot, align 8
  %7 = extractvalue { ptr, i32 } %5, 1
  store i32 %7, ptr %ehselector.slot, align 4
  call void @_ZN10z3_log_ctxD2Ev(ptr noundef nonnull align 1 dereferenceable(1) %_LOG_CTX) #3
  br label %catch.dispatch

catch.dispatch:                                   ; preds = %lpad1, %lpad
  %sel = load i32, ptr %ehselector.slot, align 4
  %8 = call i32 @llvm.eh.typeid.for(ptr @_ZTI12z3_exception) #3
  %matches = icmp eq i32 %sel, %8
  br i1 %matches, label %catch, label %eh.resume

catch:                                            ; preds = %catch.dispatch
  %exn = load ptr, ptr %exn.slot, align 8
  %9 = call ptr @__cxa_begin_catch(ptr %exn) #3
  store ptr %9, ptr %ex, align 8
  %10 = load ptr, ptr %c.addr, align 8
  %call12 = invoke noundef ptr @_Z4mk_cP11_Z3_context(ptr noundef %10)
          to label %invoke.cont11 unwind label %lpad10

invoke.cont11:                                    ; preds = %catch
  %11 = load ptr, ptr %ex, align 8
  invoke void @_ZN3api7context16handle_exceptionER12z3_exception(ptr noundef nonnull align 8 dereferenceable(3048) %call12, ptr noundef nonnull align 8 dereferenceable(8) %11)
          to label %invoke.cont13 unwind label %lpad10

invoke.cont13:                                    ; preds = %invoke.cont11
  call void @__cxa_end_catch()
  br label %try.cont

if.end:                                           ; preds = %invoke.cont3, %invoke.cont2
  %12 = load ptr, ptr %c.addr, align 8
  %call5 = invoke noundef ptr @_Z4mk_cP11_Z3_context(ptr noundef %12)
          to label %invoke.cont4 unwind label %lpad1

invoke.cont4:                                     ; preds = %if.end
  invoke void @_ZN3api7context16reset_error_codeEv(ptr noundef nonnull align 8 dereferenceable(3048) %call5)
          to label %invoke.cont6 unwind label %lpad1

invoke.cont6:                                     ; preds = %invoke.cont4
  %13 = load ptr, ptr %t.addr, align 8
  %call8 = invoke noundef ptr @_Z9to_tacticP10_Z3_tactic(ptr noundef %13)
          to label %invoke.cont7 unwind label %lpad1

invoke.cont7:                                     ; preds = %invoke.cont6
  invoke void @_ZN3api6object7inc_refEv(ptr noundef nonnull align 8 dereferenceable(24) %call8)
          to label %invoke.cont9 unwind label %lpad1

invoke.cont9:                                     ; preds = %invoke.cont7
  call void @_ZN10z3_log_ctxD2Ev(ptr noundef nonnull align 1 dereferenceable(1) %_LOG_CTX) #3
  br label %try.cont

lpad10:                                           ; preds = %invoke.cont11, %catch
  %14 = landingpad { ptr, i32 }
          cleanup
  %15 = extractvalue { ptr, i32 } %14, 0
  store ptr %15, ptr %exn.slot, align 8
  %16 = extractvalue { ptr, i32 } %14, 1
  store i32 %16, ptr %ehselector.slot, align 4
  invoke void @__cxa_end_catch()
          to label %invoke.cont14 unwind label %terminate.lpad

invoke.cont14:                                    ; preds = %lpad10
  br label %eh.resume

try.cont:                                         ; preds = %invoke.cont9, %invoke.cont13
  ret void

eh.resume:                                        ; preds = %invoke.cont14, %catch.dispatch
  %exn15 = load ptr, ptr %exn.slot, align 8
  %sel16 = load i32, ptr %ehselector.slot, align 4
  %lpad.val = insertvalue { ptr, i32 } poison, ptr %exn15, 0
  %lpad.val17 = insertvalue { ptr, i32 } %lpad.val, i32 %sel16, 1
  resume { ptr, i32 } %lpad.val17

terminate.lpad:                                   ; preds = %lpad10
  %17 = landingpad { ptr, i32 }
          catch ptr null
  %18 = extractvalue { ptr, i32 } %17, 0
  call void @__clang_call_terminate(ptr %18) #15
  unreachable
}